target datalayout = "e-m:e-p270:32:32-p271:32:32-p272:64:64-i64:64-i128:128-f80:128-n8:16:32:64-S128"
target triple = "x86_64-pc-linux-gnu"

%struct.aclSelector = type { i32, [16 x i64], ptr, ptr, ptr, ptr }

; Function Attrs: nounwind uwtable
define dso_local i32 @ACLGetCommandBitCoordinates(i64 noundef %0, ptr noundef %1, ptr noundef %2) #0 {
  %4 = alloca i32, align 4
  %5 = alloca i64, align 8
  %6 = alloca ptr, align 8
  %7 = alloca ptr, align 8
  store i64 %0, ptr %5, align 8, !tbaa !10
  store ptr %1, ptr %6, align 8, !tbaa !105
  store ptr %2, ptr %7, align 8, !tbaa !105
  %8 = load i64, ptr %5, align 8, !tbaa !10
  %9 = icmp uge i64 %8, 1024
  br i1 %9, label %10, label %11

10:                                               ; preds = %3
  store i32 -1, ptr %4, align 4
  br label %20

11:                                               ; preds = %3
  %12 = load i64, ptr %5, align 8, !tbaa !10
  %13 = udiv i64 %12, 8
  %14 = udiv i64 %13, 8
  %15 = load ptr, ptr %6, align 8, !tbaa !105
  store i64 %14, ptr %15, align 8, !tbaa !10
  %16 = load i64, ptr %5, align 8, !tbaa !10
  %17 = urem i64 %16, 64
  %18 = shl i64 1, %17
  %19 = load ptr, ptr %7, align 8, !tbaa !105
  store i64 %18, ptr %19, align 8, !tbaa !10
  store i32 0, ptr %4, align 4
  br label %20

20:                                               ; preds = %11, %10
  %21 = load i32, ptr %4, align 4
  ret i32 %21
}

; Function Attrs: nounwind uwtable
define dso_local i32 @ACLGetSelectorCommandBit(ptr noundef %0, i64 noundef %1) #0 {
  %3 = alloca i32, align 4
  %4 = alloca ptr, align 8
  %5 = alloca i64, align 8
  %6 = alloca i64, align 8
  %7 = alloca i64, align 8
  %8 = alloca i32, align 4
  store ptr %0, ptr %4, align 8, !tbaa !32
  store i64 %1, ptr %5, align 8, !tbaa !10
  call void @llvm.lifetime.start.p0(i64 8, ptr %6) #14
  call void @llvm.lifetime.start.p0(i64 8, ptr %7) #14
  %9 = load i64, ptr %5, align 8, !tbaa !10
  %10 = call i32 @ACLGetCommandBitCoordinates(i64 noundef %9, ptr noundef %6, ptr noundef %7)
  %11 = icmp eq i32 %10, -1
  br i1 %11, label %12, label %13

12:                                               ; preds = %2
  store i32 0, ptr %3, align 4
  store i32 1, ptr %8, align 4
  br label %23

13:                                               ; preds = %2
  %14 = load ptr, ptr %4, align 8, !tbaa !32
  %15 = getelementptr inbounds nuw %struct.aclSelector, ptr %14, i32 0, i32 1
  %16 = load i64, ptr %6, align 8, !tbaa !10
  %17 = getelementptr inbounds nuw [16 x i64], ptr %15, i64 0, i64 %16
  %18 = load i64, ptr %17, align 8, !tbaa !10
  %19 = load i64, ptr %7, align 8, !tbaa !10
  %20 = and i64 %18, %19
  %21 = icmp ne i64 %20, 0
  %22 = zext i1 %21 to i32
  store i32 %22, ptr %3, align 4
  store i32 1, ptr %8, align 4
  br label %23

23:                                               ; preds = %13, %12
  call void @llvm.lifetime.end.p0(i64 8, ptr %7) #14
  call void @llvm.lifetime.end.p0(i64 8, ptr %6) #14
  %24 = load i32, ptr %3, align 4
  ret i32 %24
}