; Function Attrs: mustprogress nofree norecurse nosync nounwind willreturn memory(argmem: read) uwtable
define dso_local range(i32 0, 2) i32 @ACLGetSelectorCommandBit(ptr noundef readonly captures(none) %0, i64 noundef %1) local_unnamed_addr #15 {
  %3 = icmp ugt i64 %1, 1023
  br i1 %3, label %ACLGetCommandBitCoordinates.exit.thread, label %4

4:                                                ; preds = %2
  %5 = lshr i64 %1, 6
  %6 = and i64 %1, 63
  %7 = getelementptr inbounds nuw i8, ptr %0, i64 8
  %8 = getelementptr inbounds nuw [16 x i64], ptr %7, i64 0, i64 %5
  %9 = load i64, ptr %8, align 8, !tbaa !5
  %10 = lshr i64 %9, %6
  %11 = trunc i64 %10 to i32
  %12 = and i32 %11, 1
  br label %ACLGetCommandBitCoordinates.exit.thread

ACLGetCommandBitCoordinates.exit.thread:          ; preds = %2, %4
  %.0 = phi i32 [ %12, %4 ], [ 0, %2 ]
  ret i32 %.0
}